; Function Attrs: mustprogress nounwind uwtable
define dso_local noundef nonnull align 8 dereferenceable(96) ptr @_ZN4node6crypto10HKDFConfigaSEOS1_(ptr noundef nonnull returned align 8 dereferenceable(96) %this, ptr noundef nonnull align 8 dereferenceable(96) %other) local_unnamed_addr #3 align 2 {
entry:
  %cmp = icmp eq ptr %other, %this
  br i1 %cmp, label %return, label %if.end

if.end:                                           ; preds = %entry
  %info.i = getelementptr inbounds i8, ptr %this, i64 72
  tail call void @_ZN4node6crypto10ByteSourceD1Ev(ptr noundef nonnull align 8 dereferenceable(24) %info.i) #19
  %salt.i = getelementptr inbounds i8, ptr %this, i64 48
  tail call void @_ZN4node6crypto10ByteSourceD1Ev(ptr noundef nonnull align 8 dereferenceable(24) %salt.i) #19
  %_M_refcount.i.i.i = getelementptr inbounds i8, ptr %this, i64 40
  %0 = load ptr, ptr %_M_refcount.i.i.i, align 8
  %cmp.not.i.i.i.i = icmp eq ptr %0, null
  br i1 %cmp.not.i.i.i.i, label %_ZN4node6crypto10HKDFConfigD2Ev.exit, label %if.then.i.i.i.i

if.then.i.i.i.i:                                  ; preds = %if.end
  %_M_use_count.i.i.i.i.i = getelementptr inbounds i8, ptr %0, i64 8
  %1 = load atomic i64, ptr %_M_use_count.i.i.i.i.i acquire, align 8
  %cmp.i.i.i.i.i = icmp eq i64 %1, 4294967297
  %2 = trunc i64 %1 to i32
  br i1 %cmp.i.i.i.i.i, label %if.then.i.i.i.i.i, label %if.end.i.i.i.i.i

if.then.i.i.i.i.i:                                ; preds = %if.then.i.i.i.i
  store i32 0, ptr %_M_use_count.i.i.i.i.i, align 8
  %_M_weak_count.i.i.i.i.i = getelementptr inbounds i8, ptr %0, i64 12
  store i32 0, ptr %_M_weak_count.i.i.i.i.i, align 4
  %vtable.i.i.i.i.i = load ptr, ptr %0, align 8
  %vfn.i.i.i.i.i = getelementptr inbounds i8, ptr %vtable.i.i.i.i.i, i64 16
  %3 = load ptr, ptr %vfn.i.i.i.i.i, align 8
  tail call void %3(ptr noundef nonnull align 8 dereferenceable(16) %0) #19
  br label %if.end8.sink.split.i.i.i.i.i

if.end.i.i.i.i.i:                                 ; preds = %if.then.i.i.i.i
  %4 = load i8, ptr @__libc_single_threaded, align 1
  %tobool.i.i.not.i.i.i.i.i = icmp eq i8 %4, 0
  br i1 %tobool.i.i.not.i.i.i.i.i, label %if.else.i.i.i.i.i.i, label %if.then.i.i.i.i.i.i

if.then.i.i.i.i.i.i:                              ; preds = %if.end.i.i.i.i.i
  %add.i.i.i.i.i.i = add nsw i32 %2, -1
  store i32 %add.i.i.i.i.i.i, ptr %_M_use_count.i.i.i.i.i, align 4
  br label %_ZN9__gnu_cxx27__exchange_and_add_dispatchEPii.exit.i.i.i.i.i

if.else.i.i.i.i.i.i:                              ; preds = %if.end.i.i.i.i.i
  %5 = atomicrmw volatile add ptr %_M_use_count.i.i.i.i.i, i32 -1 acq_rel, align 4
  br label %_ZN9__gnu_cxx27__exchange_and_add_dispatchEPii.exit.i.i.i.i.i

_ZN9__gnu_cxx27__exchange_and_add_dispatchEPii.exit.i.i.i.i.i: ; preds = %if.else.i.i.i.i.i.i, %if.then.i.i.i.i.i.i
  %retval.i.0.i.i.i.i.i = phi i32 [ %2, %if.then.i.i.i.i.i.i ], [ %5, %if.else.i.i.i.i.i.i ]
  %cmp6.i.i.i.i.i = icmp eq i32 %retval.i.0.i.i.i.i.i, 1
  br i1 %cmp6.i.i.i.i.i, label %if.then7.i.i.i.i.i, label %_ZN4node6crypto10HKDFConfigD2Ev.exit

if.then7.i.i.i.i.i:                               ; preds = %_ZN9__gnu_cxx27__exchange_and_add_dispatchEPii.exit.i.i.i.i.i
  %vtable.i.i.i.i.i.i.i = load ptr, ptr %0, align 8
  %vfn.i.i.i.i.i.i.i = getelementptr inbounds i8, ptr %vtable.i.i.i.i.i.i.i, i64 16
  %6 = load ptr, ptr %vfn.i.i.i.i.i.i.i, align 8
  tail call void %6(ptr noundef nonnull align 8 dereferenceable(16) %0) #19
  %_M_weak_count.i.i.i.i.i.i.i = getelementptr inbounds i8, ptr %0, i64 12
  %7 = load i8, ptr @__libc_single_threaded, align 1
  %tobool.i.i.not.i.i.i.i.i.i.i = icmp eq i8 %7, 0
  br i1 %tobool.i.i.not.i.i.i.i.i.i.i, label %if.else.i.i.i.i.i.i.i.i, label %if.then.i.i.i.i.i.i.i.i

if.then.i.i.i.i.i.i.i.i:                          ; preds = %if.then7.i.i.i.i.i
  %8 = load i32, ptr %_M_weak_count.i.i.i.i.i.i.i, align 4
  %add.i.i.i.i.i.i.i.i = add nsw i32 %8, -1
  store i32 %add.i.i.i.i.i.i.i.i, ptr %_M_weak_count.i.i.i.i.i.i.i, align 4
  br label %_ZN9__gnu_cxx27__exchange_and_add_dispatchEPii.exit.i.i.i.i.i.i.i

if.else.i.i.i.i.i.i.i.i:                          ; preds = %if.then7.i.i.i.i.i
  %9 = atomicrmw volatile add ptr %_M_weak_count.i.i.i.i.i.i.i, i32 -1 acq_rel, align 4
  br label %_ZN9__gnu_cxx27__exchange_and_add_dispatchEPii.exit.i.i.i.i.i.i.i

_ZN9__gnu_cxx27__exchange_and_add_dispatchEPii.exit.i.i.i.i.i.i.i: ; preds = %if.else.i.i.i.i.i.i.i.i, %if.then.i.i.i.i.i.i.i.i
  %retval.i.0.i.i.i.i.i.i.i = phi i32 [ %8, %if.then.i.i.i.i.i.i.i.i ], [ %9, %if.else.i.i.i.i.i.i.i.i ]
  %cmp.i.i.i.i.i.i.i = icmp eq i32 %retval.i.0.i.i.i.i.i.i.i, 1
  br i1 %cmp.i.i.i.i.i.i.i, label %if.end8.sink.split.i.i.i.i.i, label %_ZN4node6crypto10HKDFConfigD2Ev.exit

if.end8.sink.split.i.i.i.i.i:                     ; preds = %_ZN9__gnu_cxx27__exchange_and_add_dispatchEPii.exit.i.i.i.i.i.i.i, %if.then.i.i.i.i.i
  %vtable2.i.i.i.i.i.i.i = load ptr, ptr %0, align 8
  %vfn3.i.i.i.i.i.i.i = getelementptr inbounds i8, ptr %vtable2.i.i.i.i.i.i.i, i64 24
  %10 = load ptr, ptr %vfn3.i.i.i.i.i.i.i, align 8
  tail call void %10(ptr noundef nonnull align 8 dereferenceable(16) %0) #19
  br label %_ZN4node6crypto10HKDFConfigD2Ev.exit

_ZN4node6crypto10HKDFConfigD2Ev.exit:             ; preds = %if.end, %_ZN9__gnu_cxx27__exchange_and_add_dispatchEPii.exit.i.i.i.i.i, %_ZN9__gnu_cxx27__exchange_and_add_dispatchEPii.exit.i.i.i.i.i.i.i, %if.end8.sink.split.i.i.i.i.i
  store ptr getelementptr inbounds ({ [10 x ptr] }, ptr @_ZTVN4node6crypto10HKDFConfigE, i64 0, i32 0, i64 2), ptr %this, align 8
  %mode.i = getelementptr inbounds i8, ptr %this, i64 8
  %mode2.i = getelementptr inbounds i8, ptr %other, i64 8
  %11 = load i32, ptr %mode2.i, align 8
  store i32 %11, ptr %mode.i, align 8
  %length.i = getelementptr inbounds i8, ptr %this, i64 16
  %length3.i = getelementptr inbounds i8, ptr %other, i64 16
  %12 = load i64, ptr %length3.i, align 8
  store i64 %12, ptr %length.i, align 8
  %digest.i = getelementptr inbounds i8, ptr %this, i64 24
  %digest4.i = getelementptr inbounds i8, ptr %other, i64 24
  %13 = load ptr, ptr %digest4.i, align 8
  store ptr %13, ptr %digest.i, align 8
  %key.i = getelementptr inbounds i8, ptr %this, i64 32
  %key5.i = getelementptr inbounds i8, ptr %other, i64 32
  %14 = load ptr, ptr %key5.i, align 8
  store ptr %14, ptr %key.i, align 8
  %_M_refcount3.i.i.i = getelementptr inbounds i8, ptr %other, i64 40
  %15 = load ptr, ptr %_M_refcount3.i.i.i, align 8
  store ptr %15, ptr %_M_refcount.i.i.i, align 8
  %cmp.not.i.i.i.i3 = icmp eq ptr %15, null
  br i1 %cmp.not.i.i.i.i3, label %_ZN4node6crypto10HKDFConfigC2EOS1_.exit, label %if.then.i.i.i.i4

if.then.i.i.i.i4:                                 ; preds = %_ZN4node6crypto10HKDFConfigD2Ev.exit
  %_M_use_count.i.i.i.i.i5 = getelementptr inbounds i8, ptr %15, i64 8
  %16 = load i8, ptr @__libc_single_threaded, align 1
  %tobool.i.not.i.i.i.i.i = icmp eq i8 %16, 0
  br i1 %tobool.i.not.i.i.i.i.i, label %if.else.i.i.i.i.i.i10, label %if.then.i.i.i.i.i.i6

if.then.i.i.i.i.i.i6:                             ; preds = %if.then.i.i.i.i4
  %17 = load i32, ptr %_M_use_count.i.i.i.i.i5, align 4
  %add.i.i.i.i.i.i7 = add nsw i32 %17, 1
  store i32 %add.i.i.i.i.i.i7, ptr %_M_use_count.i.i.i.i.i5, align 4
  br label %_ZN4node6crypto10HKDFConfigC2EOS1_.exit

if.else.i.i.i.i.i.i10:                            ; preds = %if.then.i.i.i.i4
  %18 = atomicrmw volatile add ptr %_M_use_count.i.i.i.i.i5, i32 1 acq_rel, align 4
  br label %_ZN4node6crypto10HKDFConfigC2EOS1_.exit

_ZN4node6crypto10HKDFConfigC2EOS1_.exit:          ; preds = %_ZN4node6crypto10HKDFConfigD2Ev.exit, %if.then.i.i.i.i.i.i6, %if.else.i.i.i.i.i.i10
  %salt6.i = getelementptr inbounds i8, ptr %other, i64 48
  tail call void @_ZN4node6crypto10ByteSourceC1EOS1_(ptr noundef nonnull align 8 dereferenceable(24) %salt.i, ptr noundef nonnull align 8 dereferenceable(24) %salt6.i) #19
  %info7.i = getelementptr inbounds i8, ptr %other, i64 72
  tail call void @_ZN4node6crypto10ByteSourceC1EOS1_(ptr noundef nonnull align 8 dereferenceable(24) %info.i, ptr noundef nonnull align 8 dereferenceable(24) %info7.i) #19
  br label %return

return:                                           ; preds = %entry, %_ZN4node6crypto10HKDFConfigC2EOS1_.exit
  ret ptr %this
}